target datalayout = "e-m:e-p270:32:32-p271:32:32-p272:64:64-i64:64-i128:128-f80:128-n8:16:32:64-S128"
target triple = "x86_64-pc-linux-gnu"

%struct.BEValue = type { i8, i32, ptr, ptr, ptr }
%struct.Type_ = type { i32, ptr, ptr, ptr, %union.anon.94, ptr, ptr, %union.anon.96 }
%union.anon.94 = type { ptr }
%union.anon.96 = type { %struct.TypeFunction }
%struct.TypeFunction = type { ptr, ptr, ptr }
%struct.TypeArray = type { ptr, i32 }

@.str.8 = private unnamed_addr constant [36 x i8] c"FATAL ERROR %s -> in %s @ in %s:%d \00", align 1
@.str.9 = private unnamed_addr constant [22 x i8] c"Should be unreachable\00", align 1
@.str.10 = private unnamed_addr constant [113 x i8] c"generated/home/dtcxzyw/WorkSpace/Projects/compilers/llvm-opt-benchmark/bench/c3c/c3c/src/compiler/llvm_codegen.c\00", align 1
@__func__.llvm_emit_ptr_from_array = private unnamed_addr constant [25 x i8] c"llvm_emit_ptr_from_array\00", align 1

; Function Attrs: nounwind uwtable
define dso_local void @llvm_emit_ptr_from_array(ptr noundef %0, ptr noundef %1) #0 {
  %3 = alloca ptr, align 8
  %4 = alloca ptr, align 8
  %5 = alloca %struct.BEValue, align 8
  store ptr %0, ptr %3, align 8
  store ptr %1, ptr %4, align 8
  %6 = load ptr, ptr %4, align 8
  %7 = getelementptr inbounds %struct.BEValue, ptr %6, i32 0, i32 2
  %8 = load ptr, ptr %7, align 8
  %9 = getelementptr inbounds %struct.Type_, ptr %8, i32 0, i32 0
  %10 = load i32, ptr %9, align 8
  switch i32 %10, label %40 [
    i32 23, label %11
    i32 33, label %18
    i32 37, label %18
    i32 35, label %18
    i32 34, label %19
  ]

11:                                               ; preds = %2
  %12 = load ptr, ptr %3, align 8
  %13 = load ptr, ptr %4, align 8
  call void @llvm_value_rvalue(ptr noundef %12, ptr noundef %13)
  %14 = load ptr, ptr %4, align 8
  %15 = load i8, ptr %14, align 8
  %16 = and i8 %15, -32
  %17 = or i8 %16, 1
  store i8 %17, ptr %14, align 8
  br label %43

18:                                               ; preds = %2, %2, %2
  br label %43

19:                                               ; preds = %2
  %20 = load ptr, ptr %3, align 8
  %21 = load ptr, ptr %4, align 8
  call void @llvm_emit_subarray_pointer(ptr noundef %20, ptr noundef %21, ptr noundef %5)
  %22 = load ptr, ptr %3, align 8
  call void @llvm_value_rvalue(ptr noundef %22, ptr noundef %5)
  %23 = load ptr, ptr %4, align 8
  %24 = getelementptr inbounds %struct.BEValue, ptr %5, i32 0, i32 3
  %25 = load ptr, ptr %24, align 8
  %26 = load ptr, ptr %4, align 8
  %27 = getelementptr inbounds %struct.BEValue, ptr %26, i32 0, i32 2
  %28 = load ptr, ptr %27, align 8
  %29 = getelementptr inbounds %struct.Type_, ptr %28, i32 0, i32 7
  %30 = getelementptr inbounds %struct.TypeArray, ptr %29, i32 0, i32 0
  %31 = load ptr, ptr %30, align 8
  %32 = call ptr @type_get_ptr(ptr noundef %31)
  %33 = load ptr, ptr %4, align 8
  %34 = getelementptr inbounds %struct.BEValue, ptr %33, i32 0, i32 2
  %35 = load ptr, ptr %34, align 8
  %36 = getelementptr inbounds %struct.Type_, ptr %35, i32 0, i32 7
  %37 = getelementptr inbounds %struct.TypeArray, ptr %36, i32 0, i32 0
  %38 = load ptr, ptr %37, align 8
  %39 = call i32 @type_abi_alignment(ptr noundef %38)
  call void @llvm_value_set_address(ptr noundef %23, ptr noundef %25, ptr noundef %32, i32 noundef %39)
  br label %43

40:                                               ; preds = %2
  br label %41

41:                                               ; preds = %40
  call void (ptr, ...) @error_exit(ptr noundef @.str.8, ptr noundef @.str.9, ptr noundef @__func__.llvm_emit_ptr_from_array, ptr noundef @.str.10, i32 noundef 415) #9
  unreachable

42:                                               ; No predecessors!
  br label %43

43:                                               ; preds = %42, %19, %18, %11
  ret void
}