; Function Attrs: nounwind uwtable
define dso_local void @llvm_emit_ptr_from_array(ptr noundef %0, ptr noundef %1) local_unnamed_addr #0 {
  %3 = alloca %struct.BEValue, align 8
  %4 = getelementptr inbounds i8, ptr %1, i64 8
  %5 = load ptr, ptr %4, align 8
  %6 = load i32, ptr %5, align 8
  switch i32 %6, label %22 [
    i32 23, label %7
    i32 33, label %23
    i32 37, label %23
    i32 35, label %23
    i32 34, label %11
  ]

7:                                                ; preds = %2
  tail call void @llvm_value_rvalue(ptr noundef %0, ptr noundef nonnull %1) #10
  %8 = load i8, ptr %1, align 8
  %9 = and i8 %8, -32
  %10 = or disjoint i8 %9, 1
  store i8 %10, ptr %1, align 8
  br label %23

11:                                               ; preds = %2
  call void @llvm_emit_subarray_pointer(ptr noundef %0, ptr noundef nonnull %1, ptr noundef nonnull %3) #10
  call void @llvm_value_rvalue(ptr noundef %0, ptr noundef nonnull %3) #10
  %12 = getelementptr inbounds i8, ptr %3, i64 16
  %13 = load ptr, ptr %12, align 8
  %14 = load ptr, ptr %4, align 8
  %15 = getelementptr inbounds i8, ptr %14, i64 56
  %16 = load ptr, ptr %15, align 8
  %17 = call ptr @type_get_ptr(ptr noundef %16) #10
  %18 = load ptr, ptr %4, align 8
  %19 = getelementptr inbounds i8, ptr %18, i64 56
  %20 = load ptr, ptr %19, align 8
  %21 = call i32 @type_abi_alignment(ptr noundef %20) #10
  call void @llvm_value_set_address(ptr noundef nonnull %1, ptr noundef %13, ptr noundef %17, i32 noundef %21) #10
  br label %23

22:                                               ; preds = %2
  tail call void (ptr, ...) @error_exit(ptr noundef nonnull @.str.8, ptr noundef nonnull @.str.9, ptr noundef nonnull @__func__.llvm_emit_ptr_from_array, ptr noundef nonnull @.str.10, i32 noundef 415) #12
  unreachable

23:                                               ; preds = %2, %2, %2, %11, %7
  ret void
}